target datalayout = "e-m:e-p270:32:32-p271:32:32-p272:64:64-i64:64-i128:128-f80:128-n8:16:32:64-S128"
target triple = "x86_64-pc-linux-gnu"

@stderr = external global ptr, align 8
@hash_bulk_move = dso_local global i32 1, align 4
@.str.1 = private unnamed_addr constant [25 x i8] c"MEMCACHED_HASH_BULK_MOVE\00", align 1
@maintenance_tid = internal global i64 0, align 8
@.str.2 = private unnamed_addr constant [25 x i8] c"Can't create thread: %s\0A\00", align 1
@.str.3 = private unnamed_addr constant [14 x i8] c"mc-assocmaint\00", align 1

; Function Attrs: inlinehint nounwind willreturn memory(read) uwtable
define available_externally i32 @atoi(ptr noundef nonnull %0) #7 {
  %2 = alloca ptr, align 8
  store ptr %0, ptr %2, align 8, !tbaa !19
  %3 = load ptr, ptr %2, align 8, !tbaa !19
  %4 = call i64 @strtol(ptr noundef %3, ptr noundef null, i32 noundef 10) #9
  %5 = trunc i64 %4 to i32
  ret i32 %5
}

; Function Attrs: nounwind uwtable
define dso_local i32 @start_assoc_maintenance_thread() #0 {
  %1 = alloca i32, align 4
  %2 = alloca i32, align 4
  %3 = alloca ptr, align 8
  %4 = alloca i32, align 4
  call void @llvm.lifetime.start.p0(i64 4, ptr %2) #9
  call void @llvm.lifetime.start.p0(i64 8, ptr %3) #9
  %5 = call ptr @getenv(ptr noundef @.str.1) #9
  store ptr %5, ptr %3, align 8, !tbaa !19
  %6 = load ptr, ptr %3, align 8, !tbaa !19
  %7 = icmp ne ptr %6, null
  br i1 %7, label %8, label %15

8:                                                ; preds = %0
  %9 = load ptr, ptr %3, align 8, !tbaa !19
  %10 = call i32 @atoi(ptr noundef %9) #11
  store i32 %10, ptr @hash_bulk_move, align 4, !tbaa !4
  %11 = load i32, ptr @hash_bulk_move, align 4, !tbaa !4
  %12 = icmp eq i32 %11, 0
  br i1 %12, label %13, label %14

13:                                               ; preds = %8
  store i32 1, ptr @hash_bulk_move, align 4, !tbaa !4
  br label %14

14:                                               ; preds = %13, %8
  br label %15

15:                                               ; preds = %14, %0
  %16 = call i32 @pthread_create(ptr noundef @maintenance_tid, ptr noundef null, ptr noundef @assoc_maintenance_thread, ptr noundef null) #9
  store i32 %16, ptr %2, align 4, !tbaa !4
  %17 = icmp ne i32 %16, 0
  br i1 %17, label %18, label %23

18:                                               ; preds = %15
  %19 = load ptr, ptr @stderr, align 8, !tbaa !11
  %20 = load i32, ptr %2, align 4, !tbaa !4
  %21 = call ptr @strerror(i32 noundef %20) #9
  %22 = call i32 (ptr, ptr, ...) @fprintf(ptr noundef %19, ptr noundef @.str.2, ptr noundef %21) #9
  store i32 -1, ptr %1, align 4
  store i32 1, ptr %4, align 4
  br label %25

23:                                               ; preds = %15
  %24 = load i64, ptr @maintenance_tid, align 8, !tbaa !21
  call void @thread_setname(i64 noundef %24, ptr noundef @.str.3)
  store i32 0, ptr %1, align 4
  store i32 1, ptr %4, align 4
  br label %25

25:                                               ; preds = %23, %18
  call void @llvm.lifetime.end.p0(i64 8, ptr %3) #9
  call void @llvm.lifetime.end.p0(i64 4, ptr %2) #9
  %26 = load i32, ptr %1, align 4
  ret i32 %26
}