; Function Attrs: nounwind uwtable
define dso_local range(i32 -1, 1) i32 @start_assoc_maintenance_thread() local_unnamed_addr #0 {
  %1 = tail call ptr @getenv(ptr noundef nonnull @.str.1) #18
  %.not = icmp eq ptr %1, null
  br i1 %.not, label %5, label %2

2:                                                ; preds = %0
  %3 = tail call i64 @strtol(ptr noundef nonnull captures(none) %1, ptr noundef null, i32 noundef 10) #18
  %4 = trunc i64 %3 to i32
  %spec.store.select = tail call i32 @llvm.umax.i32(i32 %4, i32 1)
  store i32 %spec.store.select, ptr @hash_bulk_move, align 4
  br label %5

5:                                                ; preds = %2, %0
  %6 = tail call i32 @pthread_create(ptr noundef nonnull @maintenance_tid, ptr noundef null, ptr noundef nonnull @assoc_maintenance_thread, ptr noundef null) #18
  %.not5 = icmp eq i32 %6, 0
  br i1 %.not5, label %11, label %7

7:                                                ; preds = %5
  %8 = load ptr, ptr @stderr, align 8, !tbaa !11
  %9 = tail call ptr @strerror(i32 noundef %6) #18
  %10 = tail call i32 (ptr, ptr, ...) @fprintf(ptr noundef %8, ptr noundef nonnull @.str.2, ptr noundef %9) #19
  br label %13

11:                                               ; preds = %5
  %12 = load i64, ptr @maintenance_tid, align 8, !tbaa !19
  tail call void @thread_setname(i64 noundef %12, ptr noundef nonnull @.str.3) #18
  br label %13

13:                                               ; preds = %11, %7
  %.0 = phi i32 [ -1, %7 ], [ 0, %11 ]
  ret i32 %.0
}